target datalayout = "e-m:e-p270:32:32-p271:32:32-p272:64:64-i64:64-i128:128-f80:128-n8:16:32:64-S128"
target triple = "x86_64-unknown-linux-gnu"

%struct.VirtIODevice = type { %struct.DeviceState, ptr, i8, i8, i16, i64, i64, i64, i64, ptr, i16, i32, i32, ptr, %struct.MemoryListener, i16, i8, i8, i8, i8, i8, i8, i8, i8, i8, ptr, ptr, i8, i8, ptr, ptr, %union.anon.1, %struct.EventNotifier, i8 }
%struct.DeviceState = type { %struct.Object, ptr, ptr, i8, i8, i64, ptr, i32, i8, ptr, %struct.NamedGPIOListHead, %struct.NamedClockListHead, %struct.BusStateHead, i32, i32, i32, %struct.ResettableState, ptr, %struct.MemReentrancyGuard }
%struct.Object = type { ptr, ptr, ptr, i32, ptr }
%struct.NamedGPIOListHead = type { ptr }
%struct.NamedClockListHead = type { ptr }
%struct.BusStateHead = type { ptr }
%struct.ResettableState = type { i32, i8, i8 }
%struct.MemReentrancyGuard = type { i8 }
%struct.MemoryListener = type { ptr, ptr, ptr, ptr, ptr, ptr, ptr, ptr, ptr, ptr, ptr, ptr, ptr, ptr, ptr, ptr, ptr, i32, ptr, ptr, %union.anon, %union.anon.0 }
%union.anon = type { %struct.QTailQLink }
%struct.QTailQLink = type { ptr, ptr }
%union.anon.0 = type { %struct.QTailQLink }
%union.anon.1 = type { %struct.QTailQLink }
%struct.EventNotifier = type { i32, i32, i8 }
%struct.VirtioBusClass = type { %struct.BusClass, ptr, ptr, ptr, ptr, ptr, ptr, ptr, ptr, ptr, ptr, ptr, ptr, ptr, ptr, ptr, ptr, ptr, ptr, ptr, ptr, i8, ptr, ptr }
%struct.BusClass = type { %struct.ObjectClass, ptr, ptr, ptr, ptr, ptr, ptr, ptr, i32, i32 }
%struct.ObjectClass = type { ptr, ptr, [4 x ptr], [4 x ptr], ptr, ptr }
%struct.BusState = type { %struct.Object, ptr, ptr, ptr, i32, i8, i8, i32, %union.BusChildHead, %struct.BusStateEntry, %struct.ResettableState }
%union.BusChildHead = type { %struct.QTailQLink }
%struct.BusStateEntry = type { ptr, ptr }
%struct.VirtioDeviceClass = type { %struct.DeviceClass, ptr, ptr, ptr, ptr, ptr, ptr, ptr, ptr, ptr, ptr, ptr, ptr, i64, ptr, ptr, ptr, ptr, ptr, ptr, ptr, ptr, ptr, ptr, ptr }
%struct.DeviceClass = type { %struct.ObjectClass, [1 x i64], ptr, ptr, ptr, i8, i8, ptr, ptr, ptr, ptr, ptr }

@.str.42 = private unnamed_addr constant [27 x i8] c"../qemu/hw/virtio/virtio.c\00", align 1
@current_cpu = external thread_local global ptr, align 8
@__func__.virtio_reset = private unnamed_addr constant [13 x i8] c"virtio_reset\00", align 1
@.str.65 = private unnamed_addr constant [105 x i8] c"/home/dtcxzyw/WorkSpace/Projects/compilers/llvm-opt-benchmark/bench/qemu/qemu/include/hw/virtio/virtio.h\00", align 1
@.str.93 = private unnamed_addr constant [14 x i8] c"virtio-device\00", align 1
@__func__.VIRTIO_DEVICE_GET_CLASS = private unnamed_addr constant [24 x i8] c"VIRTIO_DEVICE_GET_CLASS\00", align 1
@.str.96 = private unnamed_addr constant [7 x i8] c"device\00", align 1
@.str.97 = private unnamed_addr constant [101 x i8] c"/home/dtcxzyw/WorkSpace/Projects/compilers/llvm-opt-benchmark/bench/qemu/qemu/include/hw/qdev-core.h\00", align 1
@__func__.DEVICE = private unnamed_addr constant [7 x i8] c"DEVICE\00", align 1
@.str.98 = private unnamed_addr constant [11 x i8] c"virtio-bus\00", align 1
@.str.99 = private unnamed_addr constant [109 x i8] c"/home/dtcxzyw/WorkSpace/Projects/compilers/llvm-opt-benchmark/bench/qemu/qemu/include/hw/virtio/virtio-bus.h\00", align 1
@__func__.VIRTIO_BUS_GET_CLASS = private unnamed_addr constant [21 x i8] c"VIRTIO_BUS_GET_CLASS\00", align 1

; Function Attrs: nounwind sspstrong uwtable
define internal zeroext i1 @virtio_device_disabled(ptr noundef %vdev) #0 {
entry:
  %vdev.addr = alloca ptr, align 8
  store ptr %vdev, ptr %vdev.addr, align 8
  %0 = load ptr, ptr %vdev.addr, align 8
  %disabled = getelementptr inbounds %struct.VirtIODevice, ptr %0, i32 0, i32 19
  %1 = load i8, ptr %disabled, align 1
  %tobool = trunc i8 %1 to i1
  br i1 %tobool, label %lor.end, label %lor.rhs

lor.rhs:                                          ; preds = %entry
  %2 = load ptr, ptr %vdev.addr, align 8
  %broken = getelementptr inbounds %struct.VirtIODevice, ptr %2, i32 0, i32 17
  %3 = load i8, ptr %broken, align 1
  %tobool1 = trunc i8 %3 to i1
  br label %lor.end

lor.end:                                          ; preds = %lor.rhs, %entry
  %4 = phi i1 [ true, %entry ], [ %tobool1, %lor.rhs ]
  %lnot = xor i1 %4, true
  %lnot2 = xor i1 %lnot, true
  %lnot.ext = zext i1 %lnot2 to i32
  %conv = sext i32 %lnot.ext to i64
  %tobool3 = icmp ne i64 %conv, 0
  ret i1 %tobool3
}

; Function Attrs: nounwind sspstrong uwtable
define internal ptr @VIRTIO_BUS_GET_CLASS(ptr noundef %obj) #0 {
entry:
  %obj.addr = alloca ptr, align 8
  store ptr %obj, ptr %obj.addr, align 8
  %0 = load ptr, ptr %obj.addr, align 8
  %call = call ptr @object_get_class(ptr noundef %0)
  %call1 = call ptr @object_class_dynamic_cast_assert(ptr noundef %call, ptr noundef @.str.98, ptr noundef @.str.99, i32 noundef 36, ptr noundef @__func__.VIRTIO_BUS_GET_CLASS)
  ret ptr %call1
}

; Function Attrs: nounwind sspstrong uwtable
define internal ptr @DEVICE(ptr noundef %obj) #0 {
entry:
  %obj.addr = alloca ptr, align 8
  store ptr %obj, ptr %obj.addr, align 8
  %0 = load ptr, ptr %obj.addr, align 8
  %call = call ptr @object_dynamic_cast_assert(ptr noundef %0, ptr noundef @.str.96, ptr noundef @.str.97, i32 noundef 77, ptr noundef @__func__.DEVICE)
  ret ptr %call
}

; Function Attrs: nounwind sspstrong uwtable
define internal void @virtio_notify_vector(ptr noundef %vdev, i16 noundef zeroext %vector) #0 {
entry:
  %vdev.addr = alloca ptr, align 8
  %vector.addr = alloca i16, align 2
  %qbus = alloca ptr, align 8
  %k = alloca ptr, align 8
  store ptr %vdev, ptr %vdev.addr, align 8
  store i16 %vector, ptr %vector.addr, align 2
  %0 = load ptr, ptr %vdev.addr, align 8
  %call = call ptr @DEVICE(ptr noundef %0)
  %call1 = call ptr @qdev_get_parent_bus(ptr noundef %call)
  store ptr %call1, ptr %qbus, align 8
  %1 = load ptr, ptr %qbus, align 8
  %call2 = call ptr @VIRTIO_BUS_GET_CLASS(ptr noundef %1)
  store ptr %call2, ptr %k, align 8
  %2 = load ptr, ptr %vdev.addr, align 8
  %call3 = call zeroext i1 @virtio_device_disabled(ptr noundef %2)
  br i1 %call3, label %if.then, label %if.end

if.then:                                          ; preds = %entry
  br label %if.end6

if.end:                                           ; preds = %entry
  %3 = load ptr, ptr %k, align 8
  %notify = getelementptr inbounds %struct.VirtioBusClass, ptr %3, i32 0, i32 1
  %4 = load ptr, ptr %notify, align 8
  %tobool = icmp ne ptr %4, null
  br i1 %tobool, label %if.then4, label %if.end6

if.then4:                                         ; preds = %if.end
  %5 = load ptr, ptr %k, align 8
  %notify5 = getelementptr inbounds %struct.VirtioBusClass, ptr %5, i32 0, i32 1
  %6 = load ptr, ptr %notify5, align 8
  %7 = load ptr, ptr %qbus, align 8
  %parent = getelementptr inbounds %struct.BusState, ptr %7, i32 0, i32 1
  %8 = load ptr, ptr %parent, align 8
  %9 = load i16, ptr %vector.addr, align 2
  call void %6(ptr noundef %8, i16 noundef zeroext %9)
  br label %if.end6

if.end6:                                          ; preds = %if.then4, %if.end, %if.then
  ret void
}

; Function Attrs: nounwind sspstrong uwtable
define internal i32 @virtio_default_endian() #0 {
entry:
  %retval = alloca i32, align 4
  %call = call zeroext i1 @target_words_bigendian()
  br i1 %call, label %if.then, label %if.else

if.then:                                          ; preds = %entry
  store i32 2, ptr %retval, align 4
  br label %return

if.else:                                          ; preds = %entry
  store i32 1, ptr %retval, align 4
  br label %return

return:                                           ; preds = %if.else, %if.then
  %0 = load i32, ptr %retval, align 4
  ret i32 %0
}

; Function Attrs: nounwind sspstrong uwtable
define internal i32 @virtio_current_cpu_endian() #0 {
entry:
  %retval = alloca i32, align 4
  %0 = call align 8 ptr @llvm.threadlocal.address.p0(ptr align 8 @current_cpu)
  %1 = load ptr, ptr %0, align 8
  %call = call zeroext i1 @cpu_virtio_is_big_endian(ptr noundef %1)
  br i1 %call, label %if.then, label %if.else

if.then:                                          ; preds = %entry
  store i32 2, ptr %retval, align 4
  br label %return

if.else:                                          ; preds = %entry
  store i32 1, ptr %retval, align 4
  br label %return

return:                                           ; preds = %if.else, %if.then
  %2 = load i32, ptr %retval, align 4
  ret i32 %2
}

; Function Attrs: nounwind sspstrong uwtable
define internal ptr @VIRTIO_DEVICE_GET_CLASS(ptr noundef %obj) #0 {
entry:
  %obj.addr = alloca ptr, align 8
  store ptr %obj, ptr %obj.addr, align 8
  %0 = load ptr, ptr %obj.addr, align 8
  %call = call ptr @object_get_class(ptr noundef %0)
  %call1 = call ptr @object_class_dynamic_cast_assert(ptr noundef %call, ptr noundef @.str.93, ptr noundef @.str.65, i32 noundef 85, ptr noundef @__func__.VIRTIO_DEVICE_GET_CLASS)
  ret ptr %call1
}

; Function Attrs: nounwind sspstrong uwtable
define dso_local void @virtio_reset(ptr noundef %opaque) #0 {
entry:
  %opaque.addr = alloca ptr, align 8
  %vdev = alloca ptr, align 8
  %k = alloca ptr, align 8
  %i = alloca i32, align 4
  %.atomictmp = alloca i8, align 1
  store ptr %opaque, ptr %opaque.addr, align 8
  %0 = load ptr, ptr %opaque.addr, align 8
  store ptr %0, ptr %vdev, align 8
  %1 = load ptr, ptr %vdev, align 8
  %call = call ptr @VIRTIO_DEVICE_GET_CLASS(ptr noundef %1)
  store ptr %call, ptr %k, align 8
  %2 = load ptr, ptr %vdev, align 8
  %call1 = call i32 @virtio_set_status(ptr noundef %2, i8 noundef zeroext 0)
  %3 = call align 8 ptr @llvm.threadlocal.address.p0(ptr align 8 @current_cpu)
  %4 = load ptr, ptr %3, align 8
  %tobool = icmp ne ptr %4, null
  br i1 %tobool, label %if.then, label %if.else

if.then:                                          ; preds = %entry
  %call2 = call i32 @virtio_current_cpu_endian()
  %conv = trunc i32 %call2 to i8
  %5 = load ptr, ptr %vdev, align 8
  %device_endian = getelementptr inbounds %struct.VirtIODevice, ptr %5, i32 0, i32 27
  store i8 %conv, ptr %device_endian, align 8
  br label %if.end

if.else:                                          ; preds = %entry
  %call3 = call i32 @virtio_default_endian()
  %conv4 = trunc i32 %call3 to i8
  %6 = load ptr, ptr %vdev, align 8
  %device_endian5 = getelementptr inbounds %struct.VirtIODevice, ptr %6, i32 0, i32 27
  store i8 %conv4, ptr %device_endian5, align 8
  br label %if.end

if.end:                                           ; preds = %if.else, %if.then
  %7 = load ptr, ptr %vdev, align 8
  %vhost_started = getelementptr inbounds %struct.VirtIODevice, ptr %7, i32 0, i32 24
  %8 = load i8, ptr %vhost_started, align 2
  %tobool6 = trunc i8 %8 to i1
  br i1 %tobool6, label %land.lhs.true, label %if.end13

land.lhs.true:                                    ; preds = %if.end
  %9 = load ptr, ptr %k, align 8
  %get_vhost = getelementptr inbounds %struct.VirtioDeviceClass, ptr %9, i32 0, i32 23
  %10 = load ptr, ptr %get_vhost, align 8
  %tobool8 = icmp ne ptr %10, null
  br i1 %tobool8, label %if.then9, label %if.end13

if.then9:                                         ; preds = %land.lhs.true
  %11 = load ptr, ptr %k, align 8
  %get_vhost10 = getelementptr inbounds %struct.VirtioDeviceClass, ptr %11, i32 0, i32 23
  %12 = load ptr, ptr %get_vhost10, align 8
  %13 = load ptr, ptr %vdev, align 8
  %call11 = call ptr %12(ptr noundef %13)
  %call12 = call i32 @vhost_reset_device(ptr noundef %call11)
  br label %if.end13

if.end13:                                         ; preds = %if.then9, %land.lhs.true, %if.end
  %14 = load ptr, ptr %k, align 8
  %reset = getelementptr inbounds %struct.VirtioDeviceClass, ptr %14, i32 0, i32 9
  %15 = load ptr, ptr %reset, align 8
  %tobool14 = icmp ne ptr %15, null
  br i1 %tobool14, label %if.then15, label %if.end17

if.then15:                                        ; preds = %if.end13
  %16 = load ptr, ptr %k, align 8
  %reset16 = getelementptr inbounds %struct.VirtioDeviceClass, ptr %16, i32 0, i32 9
  %17 = load ptr, ptr %reset16, align 8
  %18 = load ptr, ptr %vdev, align 8
  call void %17(ptr noundef %18)
  br label %if.end17

if.end17:                                         ; preds = %if.then15, %if.end13
  %19 = load ptr, ptr %vdev, align 8
  %start_on_kick = getelementptr inbounds %struct.VirtIODevice, ptr %19, i32 0, i32 22
  store i8 0, ptr %start_on_kick, align 8
  %20 = load ptr, ptr %vdev, align 8
  %started = getelementptr inbounds %struct.VirtIODevice, ptr %20, i32 0, i32 21
  store i8 0, ptr %started, align 1
  %21 = load ptr, ptr %vdev, align 8
  %broken = getelementptr inbounds %struct.VirtIODevice, ptr %21, i32 0, i32 17
  store i8 0, ptr %broken, align 1
  %22 = load ptr, ptr %vdev, align 8
  %guest_features = getelementptr inbounds %struct.VirtIODevice, ptr %22, i32 0, i32 6
  store i64 0, ptr %guest_features, align 8
  %23 = load ptr, ptr %vdev, align 8
  %queue_sel = getelementptr inbounds %struct.VirtIODevice, ptr %23, i32 0, i32 4
  store i16 0, ptr %queue_sel, align 2
  %24 = load ptr, ptr %vdev, align 8
  %status = getelementptr inbounds %struct.VirtIODevice, ptr %24, i32 0, i32 2
  store i8 0, ptr %status, align 8
  %25 = load ptr, ptr %vdev, align 8
  %disabled = getelementptr inbounds %struct.VirtIODevice, ptr %25, i32 0, i32 19
  store i8 0, ptr %disabled, align 1
  br label %do.body

do.body:                                          ; preds = %if.end17
  br label %while.cond

while.cond:                                       ; preds = %do.end, %do.body
  br i1 false, label %while.body, label %while.end

while.body:                                       ; preds = %while.cond
  br label %do.body18

do.body18:                                        ; preds = %while.body
  call void @g_assertion_message_expr(ptr noundef null, ptr noundef @.str.42, i32 noundef 2155, ptr noundef @__func__.virtio_reset, ptr noundef null) #12
  unreachable

do.end:                                           ; No predecessors!
  br label %while.cond

while.end:                                        ; preds = %while.cond
  %26 = load ptr, ptr %vdev, align 8
  %isr = getelementptr inbounds %struct.VirtIODevice, ptr %26, i32 0, i32 3
  store i8 0, ptr %.atomictmp, align 1
  %27 = load i8, ptr %.atomictmp, align 1
  store atomic i8 %27, ptr %isr monotonic, align 1
  br label %do.end19

do.end19:                                         ; preds = %while.end
  %28 = load ptr, ptr %vdev, align 8
  %config_vector = getelementptr inbounds %struct.VirtIODevice, ptr %28, i32 0, i32 10
  store i16 -1, ptr %config_vector, align 8
  %29 = load ptr, ptr %vdev, align 8
  %30 = load ptr, ptr %vdev, align 8
  %config_vector20 = getelementptr inbounds %struct.VirtIODevice, ptr %30, i32 0, i32 10
  %31 = load i16, ptr %config_vector20, align 8
  call void @virtio_notify_vector(ptr noundef %29, i16 noundef zeroext %31)
  store i32 0, ptr %i, align 4
  br label %for.cond

for.cond:                                         ; preds = %for.inc, %do.end19
  %32 = load i32, ptr %i, align 4
  %cmp = icmp slt i32 %32, 1024
  br i1 %cmp, label %for.body, label %for.end

for.body:                                         ; preds = %for.cond
  %33 = load ptr, ptr %vdev, align 8
  %34 = load i32, ptr %i, align 4
  call void @__virtio_queue_reset(ptr noundef %33, i32 noundef %34)
  br label %for.inc

for.inc:                                          ; preds = %for.body
  %35 = load i32, ptr %i, align 4
  %inc = add i32 %35, 1
  store i32 %inc, ptr %i, align 4
  br label %for.cond, !llvm.loop !37

for.end:                                          ; preds = %for.cond
  ret void
}