; Function Attrs: nounwind sspstrong uwtable
define dso_local void @virtio_reset(ptr noundef %opaque) local_unnamed_addr #0 {
entry:
  %call.i = tail call ptr @object_get_class(ptr noundef %opaque) #23
  %call1.i = tail call ptr @object_class_dynamic_cast_assert(ptr noundef %call.i, ptr noundef nonnull @.str.93, ptr noundef nonnull @.str.65, i32 noundef 85, ptr noundef nonnull @__func__.VIRTIO_DEVICE_GET_CLASS) #23
  %call1 = tail call i32 @virtio_set_status(ptr noundef %opaque, i8 noundef zeroext 0)
  %0 = tail call align 8 ptr @llvm.threadlocal.address.p0(ptr align 8 @current_cpu)
  %1 = load ptr, ptr %0, align 8
  %tobool.not = icmp eq ptr %1, null
  br i1 %tobool.not, label %if.else, label %if.then

if.then:                                          ; preds = %entry
  %call.i25 = tail call zeroext i1 @cpu_virtio_is_big_endian(ptr noundef nonnull %1) #23
  br label %if.end

if.else:                                          ; preds = %entry
  %call.i26 = tail call zeroext i1 @target_words_bigendian() #23
  br label %if.end

if.end:                                           ; preds = %if.else, %if.then
  %call.i26.sink = phi i1 [ %call.i26, %if.else ], [ %call.i25, %if.then ]
  %conv4 = select i1 %call.i26.sink, i8 2, i8 1
  %2 = getelementptr inbounds nuw i8, ptr %opaque, i64 464
  store i8 %conv4, ptr %2, align 8
  %vhost_started = getelementptr inbounds nuw i8, ptr %opaque, i64 442
  %3 = load i8, ptr %vhost_started, align 2
  %tobool6 = trunc i8 %3 to i1
  br i1 %tobool6, label %land.lhs.true, label %if.end13

land.lhs.true:                                    ; preds = %if.end
  %get_vhost = getelementptr inbounds nuw i8, ptr %call1.i, i64 352
  %4 = load ptr, ptr %get_vhost, align 8
  %tobool8.not = icmp eq ptr %4, null
  br i1 %tobool8.not, label %if.end13, label %if.then9

if.then9:                                         ; preds = %land.lhs.true
  %call11 = tail call ptr %4(ptr noundef nonnull %opaque) #23
  %call12 = tail call i32 @vhost_reset_device(ptr noundef %call11) #23
  br label %if.end13

if.end13:                                         ; preds = %if.then9, %land.lhs.true, %if.end
  %reset = getelementptr inbounds nuw i8, ptr %call1.i, i64 240
  %5 = load ptr, ptr %reset, align 8
  %tobool14.not = icmp eq ptr %5, null
  br i1 %tobool14.not, label %if.end17, label %if.then15

if.then15:                                        ; preds = %if.end13
  tail call void %5(ptr noundef nonnull %opaque) #23
  br label %if.end17

if.end17:                                         ; preds = %if.then15, %if.end13
  %start_on_kick = getelementptr inbounds nuw i8, ptr %opaque, i64 440
  store i8 0, ptr %start_on_kick, align 8
  %started = getelementptr inbounds nuw i8, ptr %opaque, i64 439
  store i8 0, ptr %started, align 1
  %broken = getelementptr inbounds nuw i8, ptr %opaque, i64 435
  store i8 0, ptr %broken, align 1
  %guest_features = getelementptr inbounds nuw i8, ptr %opaque, i64 184
  store i64 0, ptr %guest_features, align 8
  %queue_sel = getelementptr inbounds nuw i8, ptr %opaque, i64 170
  store i16 0, ptr %queue_sel, align 2
  %status = getelementptr inbounds nuw i8, ptr %opaque, i64 168
  store i8 0, ptr %status, align 8
  %disabled = getelementptr inbounds nuw i8, ptr %opaque, i64 437
  store i8 0, ptr %disabled, align 1
  %isr = getelementptr inbounds nuw i8, ptr %opaque, i64 169
  store atomic i8 0, ptr %isr monotonic, align 1
  %config_vector = getelementptr inbounds nuw i8, ptr %opaque, i64 216
  store i16 -1, ptr %config_vector, align 8
  %call.i.i = tail call ptr @object_dynamic_cast_assert(ptr noundef nonnull %opaque, ptr noundef nonnull @.str.96, ptr noundef nonnull @.str.97, i32 noundef 77, ptr noundef nonnull @__func__.DEVICE) #23
  %call1.i28 = tail call ptr @qdev_get_parent_bus(ptr noundef %call.i.i) #23
  %call.i4.i = tail call ptr @object_get_class(ptr noundef %call1.i28) #23
  %call1.i.i = tail call ptr @object_class_dynamic_cast_assert(ptr noundef %call.i4.i, ptr noundef nonnull @.str.98, ptr noundef nonnull @.str.99, i32 noundef 36, ptr noundef nonnull @__func__.VIRTIO_BUS_GET_CLASS) #23
  %6 = load i8, ptr %disabled, align 1
  %tobool.i.i = trunc i8 %6 to i1
  br i1 %tobool.i.i, label %for.body.preheader, label %virtio_device_disabled.exit.i

virtio_device_disabled.exit.i:                    ; preds = %if.end17
  %7 = load i8, ptr %broken, align 1
  %tobool1.i.i = trunc i8 %7 to i1
  br i1 %tobool1.i.i, label %for.body.preheader, label %if.end.i

if.end.i:                                         ; preds = %virtio_device_disabled.exit.i
  %notify.i = getelementptr inbounds nuw i8, ptr %call1.i.i, i64 160
  %8 = load ptr, ptr %notify.i, align 8
  %tobool.not.i = icmp eq ptr %8, null
  br i1 %tobool.not.i, label %for.body.preheader, label %if.then4.i

if.then4.i:                                       ; preds = %if.end.i
  %parent.i = getelementptr inbounds nuw i8, ptr %call1.i28, i64 40
  %9 = load ptr, ptr %parent.i, align 8
  tail call void %8(ptr noundef %9, i16 noundef zeroext -1) #23
  br label %for.body.preheader

for.body.preheader:                               ; preds = %if.end17, %virtio_device_disabled.exit.i, %if.end.i, %if.then4.i
  br label %for.body

for.body:                                         ; preds = %for.body.preheader, %for.body
  %i.029 = phi i32 [ %inc, %for.body ], [ 0, %for.body.preheader ]
  tail call fastcc void @__virtio_queue_reset(ptr noundef nonnull %opaque, i32 noundef %i.029)
  %inc = add nuw nsw i32 %i.029, 1
  %exitcond.not = icmp eq i32 %inc, 1024
  br i1 %exitcond.not, label %for.end, label %for.body, !llvm.loop !40

for.end:                                          ; preds = %for.body
  ret void
}